target datalayout = "e-m:e-p270:32:32-p271:32:32-p272:64:64-i64:64-i128:128-f80:128-n8:16:32:64-S128"
target triple = "x86_64-pc-linux-gnu"

@.str = private unnamed_addr constant [22 x i8] c"SDL.app.metadata.name\00", align 1
@.str.2 = private unnamed_addr constant [28 x i8] c"SDL.app.metadata.identifier\00", align 1
@.str.3 = private unnamed_addr constant [26 x i8] c"Parameter '%s' is invalid\00", align 1
@.str.4 = private unnamed_addr constant [5 x i8] c"name\00", align 1
@.str.5 = private unnamed_addr constant [13 x i8] c"SDL_APP_NAME\00", align 1
@.str.6 = private unnamed_addr constant [11 x i8] c"SDL_APP_ID\00", align 1
@.str.7 = private unnamed_addr constant [16 x i8] c"SDL Application\00", align 1
@.str.8 = private unnamed_addr constant [22 x i8] c"SDL.app.metadata.type\00", align 1
@.str.9 = private unnamed_addr constant [12 x i8] c"application\00", align 1

; Function Attrs: nounwind uwtable
define hidden ptr @SDL_GetAppMetadataProperty_REAL(ptr noundef %0) #2 {
  %2 = alloca ptr, align 8
  %3 = alloca ptr, align 8
  %4 = alloca ptr, align 8
  store ptr %0, ptr %3, align 8
  %5 = load ptr, ptr %3, align 8
  %6 = call zeroext i1 @SDL_ValidMetadataProperty(ptr noundef %5)
  br i1 %6, label %9, label %7

7:                                                ; preds = %1
  %8 = call zeroext i1 (ptr, ...) @SDL_SetError_REAL(ptr noundef @.str.3, ptr noundef @.str.4)
  store ptr null, ptr %2, align 8
  br label %54

9:                                                ; preds = %1
  call void @llvm.lifetime.start.p0(i64 8, ptr %4) #10
  store ptr null, ptr %4, align 8
  %10 = load ptr, ptr %3, align 8
  %11 = call i32 @SDL_strcmp_REAL(ptr noundef %10, ptr noundef @.str)
  %12 = icmp eq i32 %11, 0
  br i1 %12, label %13, label %15

13:                                               ; preds = %9
  %14 = call ptr @SDL_GetHint_REAL(ptr noundef @.str.5)
  store ptr %14, ptr %4, align 8
  br label %22

15:                                               ; preds = %9
  %16 = load ptr, ptr %3, align 8
  %17 = call i32 @SDL_strcmp_REAL(ptr noundef %16, ptr noundef @.str.2)
  %18 = icmp eq i32 %17, 0
  br i1 %18, label %19, label %21

19:                                               ; preds = %15
  %20 = call ptr @SDL_GetHint_REAL(ptr noundef @.str.6)
  store ptr %20, ptr %4, align 8
  br label %21

21:                                               ; preds = %19, %15
  br label %22

22:                                               ; preds = %21, %13
  %23 = load ptr, ptr %4, align 8
  %24 = icmp ne ptr %23, null
  br i1 %24, label %25, label %29

25:                                               ; preds = %22
  %26 = load ptr, ptr %4, align 8
  %27 = load i8, ptr %26, align 1
  %28 = icmp ne i8 %27, 0
  br i1 %28, label %33, label %29

29:                                               ; preds = %25, %22
  %30 = call i32 @SDL_GetGlobalProperties_REAL()
  %31 = load ptr, ptr %3, align 8
  %32 = call ptr @SDL_GetStringProperty_REAL(i32 noundef %30, ptr noundef %31, ptr noundef null)
  store ptr %32, ptr %4, align 8
  br label %33

33:                                               ; preds = %29, %25
  %34 = load ptr, ptr %4, align 8
  %35 = icmp ne ptr %34, null
  br i1 %35, label %36, label %40

36:                                               ; preds = %33
  %37 = load ptr, ptr %4, align 8
  %38 = load i8, ptr %37, align 1
  %39 = icmp ne i8 %38, 0
  br i1 %39, label %52, label %40

40:                                               ; preds = %36, %33
  %41 = load ptr, ptr %3, align 8
  %42 = call i32 @SDL_strcmp_REAL(ptr noundef %41, ptr noundef @.str)
  %43 = icmp eq i32 %42, 0
  br i1 %43, label %44, label %45

44:                                               ; preds = %40
  store ptr @.str.7, ptr %4, align 8
  br label %51

45:                                               ; preds = %40
  %46 = load ptr, ptr %3, align 8
  %47 = call i32 @SDL_strcmp_REAL(ptr noundef %46, ptr noundef @.str.8)
  %48 = icmp eq i32 %47, 0
  br i1 %48, label %49, label %50

49:                                               ; preds = %45
  store ptr @.str.9, ptr %4, align 8
  br label %50

50:                                               ; preds = %49, %45
  br label %51

51:                                               ; preds = %50, %44
  br label %52

52:                                               ; preds = %51, %36
  %53 = load ptr, ptr %4, align 8
  store ptr %53, ptr %2, align 8
  call void @llvm.lifetime.end.p0(i64 8, ptr %4) #10
  br label %54

54:                                               ; preds = %52, %7
  %55 = load ptr, ptr %2, align 8
  ret ptr %55
}