; Function Attrs: nounwind uwtable
define hidden ptr @SDL_GetAppMetadataProperty_REAL(ptr noundef %0) local_unnamed_addr #2 {
  %2 = tail call fastcc zeroext i1 @SDL_ValidMetadataProperty(ptr noundef %0)
  br i1 %2, label %5, label %3

3:                                                ; preds = %1
  %4 = tail call zeroext i1 (ptr, ...) @SDL_SetError_REAL(ptr noundef nonnull @.str.3, ptr noundef nonnull @.str.4) #11
  br label %.thread23

5:                                                ; preds = %1
  %6 = tail call i32 @SDL_strcmp_REAL(ptr noundef %0, ptr noundef nonnull @.str) #11
  %7 = icmp eq i32 %6, 0
  br i1 %7, label %11, label %8

8:                                                ; preds = %5
  %9 = tail call i32 @SDL_strcmp_REAL(ptr noundef %0, ptr noundef nonnull @.str.2) #11
  %10 = icmp eq i32 %9, 0
  br i1 %10, label %11, label %.thread

11:                                               ; preds = %8, %5
  %.str.6.sink = phi ptr [ @.str.5, %5 ], [ @.str.6, %8 ]
  %12 = tail call ptr @SDL_GetHint_REAL(ptr noundef nonnull %.str.6.sink) #11
  %.not = icmp eq ptr %12, null
  br i1 %.not, label %.thread, label %13

13:                                               ; preds = %11
  %14 = load i8, ptr %12, align 1
  %.not13 = icmp eq i8 %14, 0
  br i1 %.not13, label %.thread, label %.thread23

.thread:                                          ; preds = %8, %11, %13
  %15 = tail call i32 @SDL_GetGlobalProperties_REAL() #11
  %16 = tail call ptr @SDL_GetStringProperty_REAL(i32 noundef %15, ptr noundef %0, ptr noundef null) #11
  %.not14 = icmp eq ptr %16, null
  br i1 %.not14, label %18, label %17

17:                                               ; preds = %.thread
  %.pr = load i8, ptr %16, align 1
  %.not15 = icmp eq i8 %.pr, 0
  br i1 %.not15, label %18, label %.thread23

18:                                               ; preds = %17, %.thread
  %19 = tail call i32 @SDL_strcmp_REAL(ptr noundef %0, ptr noundef nonnull @.str) #11
  %20 = icmp eq i32 %19, 0
  br i1 %20, label %.thread23, label %21

21:                                               ; preds = %18
  %22 = tail call i32 @SDL_strcmp_REAL(ptr noundef %0, ptr noundef nonnull @.str.8) #11
  %23 = icmp eq i32 %22, 0
  %spec.select = select i1 %23, ptr @.str.9, ptr %16
  br label %.thread23

.thread23:                                        ; preds = %13, %21, %17, %18, %3
  %.012 = phi ptr [ null, %3 ], [ %16, %17 ], [ @.str.7, %18 ], [ %spec.select, %21 ], [ %12, %13 ]
  ret ptr %.012
}